target datalayout = "e-m:e-p270:32:32-p271:32:32-p272:64:64-i64:64-i128:128-f80:128-n8:16:32:64-S128"
target triple = "x86_64-pc-linux-gnu"

%"class.llvm::StringRef" = type { ptr, i64 }
%"class.clang::targets::ARMTargetInfo" = type { %"class.clang::TargetInfo.base", %"class.std::__cxx11::basic_string", %"class.std::__cxx11::basic_string", %"class.llvm::StringRef", %"class.llvm::StringRef", i32, i32, i32, i32, i32, i32, i32, i32 }
%"class.clang::TargetInfo.base" = type <{ ptr, %"struct.clang::TransferrableTargetInfo.base", %"class.llvm::RefCountedBase", %"class.std::shared_ptr", %"class.llvm::Triple", i8, i8, i8, i8, i8, i8, i8, i8, i8, i8, i8, i8, i8, i8, i8, i8, %"class.std::__cxx11::basic_string", ptr, ptr, i8, i8, [2 x i8], %"class.clang::TargetCXXABI", ptr, %"class.llvm::StringRef", %"class.llvm::VersionTuple", i32, i32, %"class.std::optional", %"class.std::optional.0", %"class.llvm::StringSet", i8 }>
%"struct.clang::TransferrableTargetInfo.base" = type <{ i8, i8, i8, i8, i8, i8, i8, i8, i8, i8, i8, i8, i8, i8, i8, i8, i8, i8, i8, i8, i8, i8, i8, i8, i8, [3 x i8], %"class.std::optional", i8, i8, i8, i8, i8, i8, i8, i8, i8, i8, i8, i8, i8, i8, i8, i8, i8, i8, i16, i16, [2 x i8], i32, i32, [4 x i8], ptr, ptr, ptr, ptr, ptr, ptr, ptr, i32, i32, i32, i32, i32, i32, i32, i32, i32, i32, i32, i32, i8, [3 x i8], i32, i32 }>
%"class.llvm::RefCountedBase" = type { i32 }
%"class.std::shared_ptr" = type { %"class.std::__shared_ptr" }
%"class.std::__shared_ptr" = type { ptr, %"class.std::__shared_count" }
%"class.std::__shared_count" = type { ptr }
%"class.llvm::Triple" = type { %"class.std::__cxx11::basic_string", i32, i32, i32, i32, i32, i32 }
%"class.clang::TargetCXXABI" = type { i32 }
%"class.llvm::VersionTuple" = type { i64, i64 }
%"class.std::optional" = type { %"struct.std::_Optional_base" }
%"struct.std::_Optional_base" = type { %"struct.std::_Optional_payload" }
%"struct.std::_Optional_payload" = type { %"struct.std::_Optional_payload_base.base", [3 x i8] }
%"struct.std::_Optional_payload_base.base" = type <{ %"union.std::_Optional_payload_base<unsigned int>::_Storage", i8 }>
%"union.std::_Optional_payload_base<unsigned int>::_Storage" = type { i32 }
%"class.std::optional.0" = type { %"struct.std::_Optional_base.1" }
%"struct.std::_Optional_base.1" = type { %"struct.std::_Optional_payload.3" }
%"struct.std::_Optional_payload.3" = type { %"struct.std::_Optional_payload.base.7", [7 x i8] }
%"struct.std::_Optional_payload.base.7" = type { %"struct.std::_Optional_payload_base.base.6" }
%"struct.std::_Optional_payload_base.base.6" = type <{ %"union.std::_Optional_payload_base<llvm::Triple>::_Storage", i8 }>
%"union.std::_Optional_payload_base<llvm::Triple>::_Storage" = type { %"class.llvm::Triple" }
%"class.llvm::StringSet" = type { %"class.llvm::StringMap" }
%"class.llvm::StringMap" = type { %"class.llvm::StringMapImpl" }
%"class.llvm::StringMapImpl" = type { ptr, i32, i32, i32, i32 }
%"class.std::__cxx11::basic_string" = type { %"struct.std::__cxx11::basic_string<char>::_Alloc_hider", i64, %union.anon }
%"struct.std::__cxx11::basic_string<char>::_Alloc_hider" = type { ptr }
%union.anon = type { i64, [8 x i8] }
%"class.clang::TargetInfo" = type <{ ptr, %"struct.clang::TransferrableTargetInfo.base", %"class.llvm::RefCountedBase", %"class.std::shared_ptr", %"class.llvm::Triple", i8, i8, i8, i8, i8, i8, i8, i8, i8, i8, i8, i8, i8, i8, i8, i8, %"class.std::__cxx11::basic_string", ptr, ptr, i8, i8, [2 x i8], %"class.clang::TargetCXXABI", ptr, %"class.llvm::StringRef", %"class.llvm::VersionTuple", i32, i32, %"class.std::optional", %"class.std::optional.0", %"class.llvm::StringSet", i8, [7 x i8] }>

; Function Attrs: mustprogress nounwind uwtable
define linkonce_odr hidden noundef i32 @_ZNK4llvm6Triple10getSubArchEv(ptr noundef nonnull align 8 dereferenceable(56) %0) #0 comdat align 2 {
  %2 = alloca ptr, align 8
  store ptr %0, ptr %2, align 8
  %3 = load ptr, ptr %2, align 8
  %4 = getelementptr inbounds nuw %"class.llvm::Triple", ptr %3, i32 0, i32 2
  %5 = load i32, ptr %4, align 4
  ret i32 %5
}

; Function Attrs: mustprogress nounwind uwtable
define linkonce_odr hidden noundef zeroext i1 @_ZNK4llvm6Triple10isWatchABIEv(ptr noundef nonnull align 8 dereferenceable(56) %0) #0 comdat align 2 {
  %2 = alloca ptr, align 8
  store ptr %0, ptr %2, align 8
  %3 = load ptr, ptr %2, align 8
  %4 = call noundef i32 @_ZNK4llvm6Triple10getSubArchEv(ptr noundef nonnull align 8 dereferenceable(56) %3)
  %5 = icmp eq i32 %4, 25
  ret i1 %5
}

; Function Attrs: mustprogress nounwind uwtable
define linkonce_odr hidden noundef nonnull align 8 dereferenceable(56) ptr @_ZNK5clang10TargetInfo9getTripleEv(ptr noundef nonnull align 8 dereferenceable(489) %0) #0 comdat align 2 {
  %2 = alloca ptr, align 8
  store ptr %0, ptr %2, align 8
  %3 = load ptr, ptr %2, align 8
  %4 = getelementptr inbounds nuw %"class.clang::TargetInfo", ptr %3, i32 0, i32 4
  ret ptr %4
}

; Function Attrs: mustprogress nounwind uwtable
define hidden noundef i32 @_ZNK5clang7targets13ARMTargetInfo20getBuiltinVaListKindEv(ptr noundef nonnull align 8 dereferenceable(624) %0) unnamed_addr #0 align 2 {
  %2 = alloca ptr, align 8
  store ptr %0, ptr %2, align 8
  %3 = load ptr, ptr %2, align 8
  %4 = getelementptr inbounds nuw %"class.clang::targets::ARMTargetInfo", ptr %3, i32 0, i32 10
  %5 = load i32, ptr %4, align 4
  %6 = lshr i32 %5, 7
  %7 = and i32 %6, 1
  %8 = icmp ne i32 %7, 0
  br i1 %8, label %9, label %10

9:                                                ; preds = %1
  br label %14

10:                                               ; preds = %1
  %11 = call noundef nonnull align 8 dereferenceable(56) ptr @_ZNK5clang10TargetInfo9getTripleEv(ptr noundef nonnull align 8 dereferenceable(489) %3)
  %12 = call noundef zeroext i1 @_ZNK4llvm6Triple10isWatchABIEv(ptr noundef nonnull align 8 dereferenceable(56) %11)
  %13 = select i1 %12, i32 0, i32 1
  br label %14

14:                                               ; preds = %10, %9
  %15 = phi i32 [ 6, %9 ], [ %13, %10 ]
  ret i32 %15
}