; Function Attrs: mustprogress nofree norecurse nosync nounwind willreturn memory(argmem: read) uwtable
define hidden noundef range(i32 0, 7) i32 @_ZNK5clang7targets13ARMTargetInfo20getBuiltinVaListKindEv(ptr nocapture noundef nonnull readonly align 8 dereferenceable(624) %0) unnamed_addr #5 align 2 {
  %2 = getelementptr inbounds nuw i8, ptr %0, i64 612
  %3 = load i32, ptr %2, align 4
  %4 = and i32 %3, 128
  %.not = icmp eq i32 %4, 0
  %5 = getelementptr inbounds i8, ptr %0, i64 252
  %6 = load i32, ptr %5, align 4
  %7 = icmp ne i32 %6, 25
  %8 = zext i1 %7 to i32
  %9 = select i1 %.not, i32 %8, i32 6
  ret i32 %9
}